target datalayout = "e-m:e-p270:32:32-p271:32:32-p272:64:64-i64:64-i128:128-f80:128-n8:16:32:64-S128"
target triple = "x86_64-pc-linux-gnu"

%struct._header_field_info = type { ptr, ptr, i32, i32, ptr, i64, ptr, i32, i32, i32, i32, ptr }
%struct._e_guid_t = type { i32, i16, i16, [8 x i8] }
%struct._guid_key = type { %struct._e_guid_t, i16 }
%struct._dcerpc_uuid_value = type { ptr, i32, i32, ptr, ptr, i32 }
%struct._dcerpc_sub_dissector = type { i16, ptr, ptr, ptr }
%struct.dcerpcstat_tap_data = type { ptr, %struct._e_guid_t, i16, i32 }

@dcerpc_uuids = global ptr null, align 8
@.str.1 = private unnamed_addr constant [29 x i8] c"%s:%u: failed assertion \22%s\22\00", align 1
@.str.2 = private unnamed_addr constant [32 x i8] c"epan/dissectors/packet-dcerpc.c\00", align 1
@.str.630 = private unnamed_addr constant [9 x i8] c"tap_data\00", align 1
@.str.631 = private unnamed_addr constant [8 x i8] c"unknown\00", align 1

; Function Attrs: null_pointer_is_valid sspstrong uwtable
define ptr @dcerpc_get_proto_sub_dissector(ptr noundef %0, i16 noundef zeroext %1) #0 {
  %3 = alloca ptr, align 8
  %4 = alloca ptr, align 8
  %5 = alloca i16, align 2
  %6 = alloca %struct._guid_key, align 4
  %7 = alloca ptr, align 8
  %8 = alloca i32, align 4
  store ptr %0, ptr %4, align 8
  store i16 %1, ptr %5, align 2
  call void @llvm.lifetime.start.p0(i64 20, ptr %6) #19
  call void @llvm.lifetime.start.p0(i64 8, ptr %7) #19
  %9 = getelementptr inbounds nuw %struct._guid_key, ptr %6, i32 0, i32 0
  %10 = load ptr, ptr %4, align 8
  call void @llvm.memcpy.p0.p0.i64(ptr align 4 %9, ptr align 4 %10, i64 16, i1 false)
  %11 = load i16, ptr %5, align 2
  %12 = getelementptr inbounds nuw %struct._guid_key, ptr %6, i32 0, i32 1
  store i16 %11, ptr %12, align 4
  %13 = load ptr, ptr @dcerpc_uuids, align 8
  %14 = call ptr @g_hash_table_lookup(ptr noundef %13, ptr noundef %6)
  store ptr %14, ptr %7, align 8
  %15 = icmp ne ptr %14, null
  br i1 %15, label %17, label %16

16:                                               ; preds = %2
  store ptr null, ptr %3, align 8
  store i32 1, ptr %8, align 4
  br label %21

17:                                               ; preds = %2
  %18 = load ptr, ptr %7, align 8
  %19 = getelementptr inbounds nuw %struct._dcerpc_uuid_value, ptr %18, i32 0, i32 4
  %20 = load ptr, ptr %19, align 8
  store ptr %20, ptr %3, align 8
  store i32 1, ptr %8, align 4
  br label %21

21:                                               ; preds = %17, %16
  call void @llvm.lifetime.end.p0(i64 8, ptr %7) #19
  call void @llvm.lifetime.end.p0(i64 20, ptr %6) #19
  %22 = load ptr, ptr %3, align 8
  ret ptr %22
}

; Function Attrs: null_pointer_is_valid sspstrong uwtable
define i32 @dcerpc_get_proto_hf_opnum(ptr noundef %0, i16 noundef zeroext %1) #0 {
  %3 = alloca i32, align 4
  %4 = alloca ptr, align 8
  %5 = alloca i16, align 2
  %6 = alloca %struct._guid_key, align 4
  %7 = alloca ptr, align 8
  %8 = alloca i32, align 4
  store ptr %0, ptr %4, align 8
  store i16 %1, ptr %5, align 2
  call void @llvm.lifetime.start.p0(i64 20, ptr %6) #19
  call void @llvm.lifetime.start.p0(i64 8, ptr %7) #19
  %9 = getelementptr inbounds nuw %struct._guid_key, ptr %6, i32 0, i32 0
  %10 = load ptr, ptr %4, align 8
  call void @llvm.memcpy.p0.p0.i64(ptr align 4 %9, ptr align 4 %10, i64 16, i1 false)
  %11 = load i16, ptr %5, align 2
  %12 = getelementptr inbounds nuw %struct._guid_key, ptr %6, i32 0, i32 1
  store i16 %11, ptr %12, align 4
  %13 = load ptr, ptr @dcerpc_uuids, align 8
  %14 = call ptr @g_hash_table_lookup(ptr noundef %13, ptr noundef %6)
  store ptr %14, ptr %7, align 8
  %15 = icmp ne ptr %14, null
  br i1 %15, label %17, label %16

16:                                               ; preds = %2
  store i32 -1, ptr %3, align 4
  store i32 1, ptr %8, align 4
  br label %21

17:                                               ; preds = %2
  %18 = load ptr, ptr %7, align 8
  %19 = getelementptr inbounds nuw %struct._dcerpc_uuid_value, ptr %18, i32 0, i32 5
  %20 = load i32, ptr %19, align 8
  store i32 %20, ptr %3, align 4
  store i32 1, ptr %8, align 4
  br label %21

21:                                               ; preds = %17, %16
  call void @llvm.lifetime.end.p0(i64 8, ptr %7) #19
  call void @llvm.lifetime.end.p0(i64 20, ptr %6) #19
  %22 = load i32, ptr %3, align 4
  ret i32 %22
}

; Function Attrs: null_pointer_is_valid sspstrong uwtable
define internal void @dcerpcstat_init(ptr noundef %0, ptr noundef %1) #0 {
  %3 = alloca ptr, align 8
  %4 = alloca ptr, align 8
  %5 = alloca ptr, align 8
  %6 = alloca ptr, align 8
  %7 = alloca i32, align 4
  %8 = alloca i32, align 4
  %9 = alloca ptr, align 8
  %10 = alloca i32, align 4
  %11 = alloca ptr, align 8
  store ptr %0, ptr %3, align 8
  store ptr %1, ptr %4, align 8
  call void @llvm.lifetime.start.p0(i64 8, ptr %5) #19
  %12 = load ptr, ptr %3, align 8
  %13 = call ptr @get_srt_table_param_data(ptr noundef %12)
  store ptr %13, ptr %5, align 8
  call void @llvm.lifetime.start.p0(i64 8, ptr %6) #19
  call void @llvm.lifetime.start.p0(i64 4, ptr %7) #19
  call void @llvm.lifetime.start.p0(i64 4, ptr %8) #19
  call void @llvm.lifetime.start.p0(i64 8, ptr %9) #19
  %14 = load ptr, ptr %5, align 8
  %15 = icmp ne ptr %14, null
  br i1 %15, label %16, label %17

16:                                               ; preds = %2
  br label %19

17:                                               ; preds = %2
  call void (ptr, ...) @proto_report_dissector_bug(ptr noundef @.str.1, ptr noundef @.str.2, i32 noundef 2030, ptr noundef @.str.630) #24
  unreachable

18:                                               ; No predecessors!
  br label %19

19:                                               ; preds = %18, %16
  %20 = load ptr, ptr %5, align 8
  %21 = getelementptr inbounds nuw %struct.dcerpcstat_tap_data, ptr %20, i32 0, i32 1
  %22 = load ptr, ptr %5, align 8
  %23 = getelementptr inbounds nuw %struct.dcerpcstat_tap_data, ptr %22, i32 0, i32 2
  %24 = load i16, ptr %23, align 8
  %25 = call i32 @dcerpc_get_proto_hf_opnum(ptr noundef %21, i16 noundef zeroext %24)
  store i32 %25, ptr %8, align 4
  %26 = load ptr, ptr %5, align 8
  %27 = getelementptr inbounds nuw %struct.dcerpcstat_tap_data, ptr %26, i32 0, i32 1
  %28 = load ptr, ptr %5, align 8
  %29 = getelementptr inbounds nuw %struct.dcerpcstat_tap_data, ptr %28, i32 0, i32 2
  %30 = load i16, ptr %29, align 8
  %31 = call ptr @dcerpc_get_proto_sub_dissector(ptr noundef %27, i16 noundef zeroext %30)
  store ptr %31, ptr %9, align 8
  %32 = load i32, ptr %8, align 4
  %33 = icmp ne i32 %32, -1
  br i1 %33, label %34, label %48

34:                                               ; preds = %19
  %35 = load ptr, ptr %5, align 8
  %36 = getelementptr inbounds nuw %struct.dcerpcstat_tap_data, ptr %35, i32 0, i32 0
  %37 = load ptr, ptr %36, align 8
  %38 = load ptr, ptr %4, align 8
  %39 = load ptr, ptr %5, align 8
  %40 = getelementptr inbounds nuw %struct.dcerpcstat_tap_data, ptr %39, i32 0, i32 3
  %41 = load i32, ptr %40, align 4
  %42 = load i32, ptr %8, align 4
  %43 = call ptr @proto_registrar_get_nth(i32 noundef %42)
  %44 = getelementptr inbounds nuw %struct._header_field_info, ptr %43, i32 0, i32 1
  %45 = load ptr, ptr %44, align 8
  %46 = load ptr, ptr %5, align 8
  %47 = call ptr @init_srt_table(ptr noundef %37, ptr noundef null, ptr noundef %38, i32 noundef %41, ptr noundef null, ptr noundef %45, ptr noundef %46)
  store ptr %47, ptr %6, align 8
  br label %58

48:                                               ; preds = %19
  %49 = load ptr, ptr %5, align 8
  %50 = getelementptr inbounds nuw %struct.dcerpcstat_tap_data, ptr %49, i32 0, i32 0
  %51 = load ptr, ptr %50, align 8
  %52 = load ptr, ptr %4, align 8
  %53 = load ptr, ptr %5, align 8
  %54 = getelementptr inbounds nuw %struct.dcerpcstat_tap_data, ptr %53, i32 0, i32 3
  %55 = load i32, ptr %54, align 4
  %56 = load ptr, ptr %5, align 8
  %57 = call ptr @init_srt_table(ptr noundef %51, ptr noundef null, ptr noundef %52, i32 noundef %55, ptr noundef null, ptr noundef null, ptr noundef %56)
  store ptr %57, ptr %6, align 8
  br label %58

58:                                               ; preds = %48, %34
  store i32 0, ptr %7, align 4
  br label %59

59:                                               ; preds = %99, %58
  %60 = load i32, ptr %7, align 4
  %61 = load ptr, ptr %5, align 8
  %62 = getelementptr inbounds nuw %struct.dcerpcstat_tap_data, ptr %61, i32 0, i32 3
  %63 = load i32, ptr %62, align 4
  %64 = icmp slt i32 %60, %63
  br i1 %64, label %65, label %102

65:                                               ; preds = %59
  call void @llvm.lifetime.start.p0(i64 4, ptr %10) #19
  call void @llvm.lifetime.start.p0(i64 8, ptr %11) #19
  store ptr @.str.631, ptr %11, align 8
  store i32 0, ptr %10, align 4
  br label %66

66:                                               ; preds = %92, %65
  %67 = load ptr, ptr %9, align 8
  %68 = load i32, ptr %10, align 4
  %69 = sext i32 %68 to i64
  %70 = getelementptr %struct._dcerpc_sub_dissector, ptr %67, i64 %69
  %71 = getelementptr inbounds nuw %struct._dcerpc_sub_dissector, ptr %70, i32 0, i32 1
  %72 = load ptr, ptr %71, align 8
  %73 = icmp ne ptr %72, null
  br i1 %73, label %74, label %95

74:                                               ; preds = %66
  %75 = load ptr, ptr %9, align 8
  %76 = load i32, ptr %10, align 4
  %77 = sext i32 %76 to i64
  %78 = getelementptr %struct._dcerpc_sub_dissector, ptr %75, i64 %77
  %79 = getelementptr inbounds nuw %struct._dcerpc_sub_dissector, ptr %78, i32 0, i32 0
  %80 = load i16, ptr %79, align 8
  %81 = zext i16 %80 to i32
  %82 = load i32, ptr %7, align 4
  %83 = icmp eq i32 %81, %82
  br i1 %83, label %84, label %91

84:                                               ; preds = %74
  %85 = load ptr, ptr %9, align 8
  %86 = load i32, ptr %10, align 4
  %87 = sext i32 %86 to i64
  %88 = getelementptr %struct._dcerpc_sub_dissector, ptr %85, i64 %87
  %89 = getelementptr inbounds nuw %struct._dcerpc_sub_dissector, ptr %88, i32 0, i32 1
  %90 = load ptr, ptr %89, align 8
  store ptr %90, ptr %11, align 8
  br label %91

91:                                               ; preds = %84, %74
  br label %92

92:                                               ; preds = %91
  %93 = load i32, ptr %10, align 4
  %94 = add i32 %93, 1
  store i32 %94, ptr %10, align 4
  br label %66, !llvm.loop !20

95:                                               ; preds = %66
  %96 = load ptr, ptr %6, align 8
  %97 = load i32, ptr %7, align 4
  %98 = load ptr, ptr %11, align 8
  call void @init_srt_table_row(ptr noundef %96, i32 noundef %97, ptr noundef %98)
  call void @llvm.lifetime.end.p0(i64 8, ptr %11) #19
  call void @llvm.lifetime.end.p0(i64 4, ptr %10) #19
  br label %99

99:                                               ; preds = %95
  %100 = load i32, ptr %7, align 4
  %101 = add i32 %100, 1
  store i32 %101, ptr %7, align 4
  br label %59, !llvm.loop !21

102:                                              ; preds = %59
  call void @llvm.lifetime.end.p0(i64 8, ptr %9) #19
  call void @llvm.lifetime.end.p0(i64 4, ptr %8) #19
  call void @llvm.lifetime.end.p0(i64 4, ptr %7) #19
  call void @llvm.lifetime.end.p0(i64 8, ptr %6) #19
  call void @llvm.lifetime.end.p0(i64 8, ptr %5) #19
  ret void
}