; Function Attrs: null_pointer_is_valid sspstrong uwtable
define internal void @dcerpcstat_init(ptr noundef %0, ptr noundef %1) #0 {
  %3 = alloca %struct._guid_key, align 4
  %4 = alloca %struct._guid_key, align 4
  %5 = tail call ptr @get_srt_table_param_data(ptr noundef %0)
  %.not = icmp eq ptr %5, null
  br i1 %.not, label %6, label %7

6:                                                ; preds = %2
  tail call void (ptr, ...) @proto_report_dissector_bug(ptr noundef nonnull @.str.1, ptr noundef nonnull @.str.2, i32 noundef 2030, ptr noundef nonnull @.str.630) #21
  unreachable

7:                                                ; preds = %2
  %8 = getelementptr inbounds nuw i8, ptr %5, i64 8
  %9 = getelementptr inbounds nuw i8, ptr %5, i64 24
  %10 = load i16, ptr %9, align 8
  call void @llvm.lifetime.start.p0(i64 20, ptr nonnull %4) #19
  call void @llvm.memcpy.p0.p0.i64(ptr noundef nonnull align 4 dereferenceable(16) %4, ptr noundef nonnull readonly align 4 dereferenceable(16) %8, i64 16, i1 false)
  %11 = getelementptr inbounds nuw i8, ptr %4, i64 16
  store i16 %10, ptr %11, align 4
  %12 = load ptr, ptr @dcerpc_uuids, align 8
  %13 = call ptr @g_hash_table_lookup(ptr noundef %12, ptr noundef nonnull %4)
  %.not.i = icmp eq ptr %13, null
  br i1 %.not.i, label %dcerpc_get_proto_hf_opnum.exit, label %14

14:                                               ; preds = %7
  %15 = getelementptr inbounds nuw i8, ptr %13, i64 32
  %16 = load i32, ptr %15, align 8
  br label %dcerpc_get_proto_hf_opnum.exit

dcerpc_get_proto_hf_opnum.exit:                   ; preds = %7, %14
  %.0.i = phi i32 [ %16, %14 ], [ -1, %7 ]
  call void @llvm.lifetime.end.p0(i64 20, ptr nonnull %4) #19
  %17 = load i16, ptr %9, align 8
  call void @llvm.lifetime.start.p0(i64 20, ptr nonnull %3) #19
  call void @llvm.memcpy.p0.p0.i64(ptr noundef nonnull align 4 dereferenceable(16) %3, ptr noundef nonnull readonly align 4 dereferenceable(16) %8, i64 16, i1 false)
  %18 = getelementptr inbounds nuw i8, ptr %3, i64 16
  store i16 %17, ptr %18, align 4
  %19 = load ptr, ptr @dcerpc_uuids, align 8
  %20 = call ptr @g_hash_table_lookup(ptr noundef %19, ptr noundef nonnull %3)
  %.not.i37 = icmp eq ptr %20, null
  br i1 %.not.i37, label %dcerpc_get_proto_sub_dissector.exit, label %21

21:                                               ; preds = %dcerpc_get_proto_hf_opnum.exit
  %22 = getelementptr inbounds nuw i8, ptr %20, i64 24
  %23 = load ptr, ptr %22, align 8
  br label %dcerpc_get_proto_sub_dissector.exit

dcerpc_get_proto_sub_dissector.exit:              ; preds = %dcerpc_get_proto_hf_opnum.exit, %21
  %.0.i38 = phi ptr [ %23, %21 ], [ null, %dcerpc_get_proto_hf_opnum.exit ]
  call void @llvm.lifetime.end.p0(i64 20, ptr nonnull %3) #19
  %.not35 = icmp eq i32 %.0.i, -1
  %24 = load ptr, ptr %5, align 8
  %25 = getelementptr inbounds nuw i8, ptr %5, i64 28
  %26 = load i32, ptr %25, align 4
  br i1 %.not35, label %31, label %27

27:                                               ; preds = %dcerpc_get_proto_sub_dissector.exit
  %28 = call ptr @proto_registrar_get_nth(i32 noundef %.0.i)
  %29 = getelementptr inbounds nuw i8, ptr %28, i64 8
  %30 = load ptr, ptr %29, align 8
  br label %31

31:                                               ; preds = %dcerpc_get_proto_sub_dissector.exit, %27
  %.sink = phi ptr [ %30, %27 ], [ null, %dcerpc_get_proto_sub_dissector.exit ]
  %32 = call ptr @init_srt_table(ptr noundef %24, ptr noundef null, ptr noundef %1, i32 noundef %26, ptr noundef null, ptr noundef %.sink, ptr noundef nonnull %5)
  %33 = getelementptr inbounds nuw i8, ptr %5, i64 28
  %34 = load i32, ptr %33, align 4
  %35 = icmp sgt i32 %34, 0
  br i1 %35, label %.preheader.lr.ph, label %._crit_edge43

.preheader.lr.ph:                                 ; preds = %31
  %36 = getelementptr inbounds nuw i8, ptr %.0.i38, i64 8
  br label %.preheader

.preheader:                                       ; preds = %.preheader.lr.ph, %._crit_edge
  %.03142 = phi i32 [ 0, %.preheader.lr.ph ], [ %48, %._crit_edge ]
  %37 = load ptr, ptr %36, align 8
  %.not3639 = icmp eq ptr %37, null
  br i1 %.not3639, label %._crit_edge, label %.lr.ph

.lr.ph:                                           ; preds = %.preheader, %.lr.ph
  %38 = phi ptr [ %47, %.lr.ph ], [ %37, %.preheader ]
  %39 = phi ptr [ %45, %.lr.ph ], [ %.0.i38, %.preheader ]
  %.041 = phi ptr [ %spec.select, %.lr.ph ], [ @.str.631, %.preheader ]
  %.02940 = phi i32 [ %43, %.lr.ph ], [ 0, %.preheader ]
  %40 = load i16, ptr %39, align 8
  %41 = zext i16 %40 to i32
  %42 = icmp eq i32 %.03142, %41
  %spec.select = select i1 %42, ptr %38, ptr %.041
  %43 = add i32 %.02940, 1
  %44 = sext i32 %43 to i64
  %45 = getelementptr %struct._dcerpc_sub_dissector, ptr %.0.i38, i64 %44
  %46 = getelementptr inbounds nuw i8, ptr %45, i64 8
  %47 = load ptr, ptr %46, align 8
  %.not36 = icmp eq ptr %47, null
  br i1 %.not36, label %._crit_edge, label %.lr.ph, !llvm.loop !20

._crit_edge:                                      ; preds = %.lr.ph, %.preheader
  %.0.lcssa = phi ptr [ @.str.631, %.preheader ], [ %spec.select, %.lr.ph ]
  call void @init_srt_table_row(ptr noundef %32, i32 noundef %.03142, ptr noundef %.0.lcssa)
  %48 = add nuw nsw i32 %.03142, 1
  %49 = load i32, ptr %33, align 4
  %50 = icmp slt i32 %48, %49
  br i1 %50, label %.preheader, label %._crit_edge43, !llvm.loop !21

._crit_edge43:                                    ; preds = %._crit_edge, %31
  ret void
}